ARM GAS  C:\Users\yqin18\AppData\Local\Temp\ccfOQsIb.s 			page 1


   1              		.syntax unified
   2              		.cpu cortex-m3
   3              		.fpu softvfp
   4              		.eabi_attribute 20, 1
   5              		.eabi_attribute 21, 1
   6              		.eabi_attribute 23, 3
   7              		.eabi_attribute 24, 1
   8              		.eabi_attribute 25, 1
   9              		.eabi_attribute 26, 1
  10              		.eabi_attribute 30, 1
  11              		.eabi_attribute 34, 1
  12              		.eabi_attribute 18, 4
  13              		.thumb
  14              		.syntax unified
  15              		.file	"main.c"
  16              		.text
  17              	.Ltext0:
  18              		.cfi_sections	.debug_frame
  19              		.section	.text.Tx,"ax",%progbits
  20              		.align	2
  21              		.global	Tx
  22              		.thumb
  23              		.thumb_func
  24              		.type	Tx, %function
  25              	Tx:
  26              	.LFB63:
  27              		.file 1 "main.c"
   1:main.c        **** /* ========================================
   2:main.c        ****  *
   3:main.c        ****  * Copyright YOUR COMPANY, THE YEAR
   4:main.c        ****  * All Rights Reserved
   5:main.c        ****  * UNPUBLISHED, LICENSED SOFTWARE.
   6:main.c        ****  *
   7:main.c        ****  * CONFIDENTIAL AND PROPRIETARY INFORMATION
   8:main.c        ****  * WHICH IS THE PROPERTY OF your company.
   9:main.c        ****  *
  10:main.c        ****  * ========================================
  11:main.c        **** */
  12:main.c        **** #include "project.h"
  13:main.c        **** int adc = 0;
  14:main.c        **** uint8 txstat = 0;
  15:main.c        **** CY_ISR(Tx){
  28              		.loc 1 15 0
  29              		.cfi_startproc
  30              		@ args = 0, pretend = 0, frame = 0
  31              		@ frame_needed = 0, uses_anonymous_args = 0
  32 0000 08B5     		push	{r3, lr}
  33              		.cfi_def_cfa_offset 8
  34              		.cfi_offset 3, -8
  35              		.cfi_offset 14, -4
  16:main.c        ****     txstat = UART_1_ReadTxStatus();
  36              		.loc 1 16 0
  37 0002 FFF7FEFF 		bl	UART_1_ReadTxStatus
  38              	.LVL0:
  39 0006 054B     		ldr	r3, .L4
  40 0008 1870     		strb	r0, [r3]
  17:main.c        ****     if(txstat&UART_1_TX_STS_FIFO_EMPTY) {
ARM GAS  C:\Users\yqin18\AppData\Local\Temp\ccfOQsIb.s 			page 2


  41              		.loc 1 17 0
  42 000a 10F0020F 		tst	r0, #2
  43 000e 02D0     		beq	.L2
  18:main.c        ****         UART_1_WriteTxData(adc);
  44              		.loc 1 18 0
  45 0010 1879     		ldrb	r0, [r3, #4]	@ zero_extendqisi2
  46 0012 FFF7FEFF 		bl	UART_1_WriteTxData
  47              	.LVL1:
  48              	.L2:
  19:main.c        ****     }
  20:main.c        ****     Timer_1_ReadStatusRegister();
  49              		.loc 1 20 0
  50 0016 FFF7FEFF 		bl	Timer_1_ReadStatusRegister
  51              	.LVL2:
  52 001a 08BD     		pop	{r3, pc}
  53              	.L5:
  54              		.align	2
  55              	.L4:
  56 001c 00000000 		.word	.LANCHOR0
  57              		.cfi_endproc
  58              	.LFE63:
  59              		.size	Tx, .-Tx
  60              		.section	.text.main,"ax",%progbits
  61              		.align	2
  62              		.global	main
  63              		.thumb
  64              		.thumb_func
  65              		.type	main, %function
  66              	main:
  67              	.LFB64:
  21:main.c        **** }
  22:main.c        **** int main(void)
  23:main.c        **** {
  68              		.loc 1 23 0
  69              		.cfi_startproc
  70              		@ Volatile: function does not return.
  71              		@ args = 0, pretend = 0, frame = 0
  72              		@ frame_needed = 0, uses_anonymous_args = 0
  73 0000 08B5     		push	{r3, lr}
  74              		.cfi_def_cfa_offset 8
  75              		.cfi_offset 3, -8
  76              		.cfi_offset 14, -4
  24:main.c        ****     CyGlobalIntEnable; /* Enable global interrupts. */
  77              		.loc 1 24 0
  78              		.syntax unified
  79              	@ 24 "main.c" 1
  80 0002 62B6     		CPSIE   i
  81              	@ 0 "" 2
  25:main.c        ****     UART_1_ClearRxBuffer();
  82              		.loc 1 25 0
  83              		.thumb
  84              		.syntax unified
  85 0004 FFF7FEFF 		bl	UART_1_ClearRxBuffer
  86              	.LVL3:
  26:main.c        ****     UART_1_ClearTxBuffer();
  87              		.loc 1 26 0
  88 0008 FFF7FEFF 		bl	UART_1_ClearTxBuffer
ARM GAS  C:\Users\yqin18\AppData\Local\Temp\ccfOQsIb.s 			page 3


  89              	.LVL4:
  27:main.c        ****     ADC_DelSig_1_Start();
  90              		.loc 1 27 0
  91 000c FFF7FEFF 		bl	ADC_DelSig_1_Start
  92              	.LVL5:
  28:main.c        ****     ADC_DelSig_1_StartConvert();
  93              		.loc 1 28 0
  94 0010 FFF7FEFF 		bl	ADC_DelSig_1_StartConvert
  95              	.LVL6:
  29:main.c        ****     isr_1_StartEx(Tx);
  96              		.loc 1 29 0
  97 0014 0B48     		ldr	r0, .L11
  98 0016 FFF7FEFF 		bl	isr_1_StartEx
  99              	.LVL7:
  30:main.c        ****     UART_1_Start();
 100              		.loc 1 30 0
 101 001a FFF7FEFF 		bl	UART_1_Start
 102              	.LVL8:
  31:main.c        ****     Timer_1_Start();
 103              		.loc 1 31 0
 104 001e FFF7FEFF 		bl	Timer_1_Start
 105              	.LVL9:
 106              	.L8:
  32:main.c        ****     
  33:main.c        ****     /* Place your initialization/startup code here (e.g. MyInst_Start()) */
  34:main.c        **** 
  35:main.c        ****     for(;;)
  36:main.c        ****     {
  37:main.c        ****         /* Place your application code here. */
  38:main.c        ****         adc = ADC_DelSig_1_Read16();
 107              		.loc 1 38 0
 108 0022 FFF7FEFF 		bl	ADC_DelSig_1_Read16
 109              	.LVL10:
 110 0026 084B     		ldr	r3, .L11+4
 111 0028 5860     		str	r0, [r3, #4]
  39:main.c        ****         if(adc<0) adc = 0;
 112              		.loc 1 39 0
 113 002a 0028     		cmp	r0, #0
 114 002c 01DA     		bge	.L7
 115              		.loc 1 39 0 is_stmt 0 discriminator 1
 116 002e 0022     		movs	r2, #0
 117 0030 5A60     		str	r2, [r3, #4]
 118              	.L7:
  40:main.c        ****         if(adc>255) adc = 255;
 119              		.loc 1 40 0 is_stmt 1
 120 0032 054B     		ldr	r3, .L11+4
 121 0034 5B68     		ldr	r3, [r3, #4]
 122 0036 FF2B     		cmp	r3, #255
 123 0038 F3DD     		ble	.L8
 124              		.loc 1 40 0 is_stmt 0 discriminator 1
 125 003a FF22     		movs	r2, #255
 126 003c 024B     		ldr	r3, .L11+4
 127 003e 5A60     		str	r2, [r3, #4]
 128 0040 EFE7     		b	.L8
 129              	.L12:
 130 0042 00BF     		.align	2
 131              	.L11:
ARM GAS  C:\Users\yqin18\AppData\Local\Temp\ccfOQsIb.s 			page 4


 132 0044 00000000 		.word	Tx
 133 0048 00000000 		.word	.LANCHOR0
 134              		.cfi_endproc
 135              	.LFE64:
 136              		.size	main, .-main
 137              		.global	txstat
 138              		.global	adc
 139              		.bss
 140              		.align	2
 141              		.set	.LANCHOR0,. + 0
 142              		.type	txstat, %object
 143              		.size	txstat, 1
 144              	txstat:
 145 0000 00       		.space	1
 146 0001 000000   		.space	3
 147              		.type	adc, %object
 148              		.size	adc, 4
 149              	adc:
 150 0004 00000000 		.space	4
 151              		.text
 152              	.Letext0:
 153              		.file 2 "c:\\program files (x86)\\cypress\\psoc creator\\4.2\\psoc creator\\import\\gnu\\arm\\5.4.
 154              		.file 3 "c:\\program files (x86)\\cypress\\psoc creator\\4.2\\psoc creator\\import\\gnu\\arm\\5.4.
 155              		.file 4 "Generated_Source\\PSoC5/cytypes.h"
 156              		.file 5 "Generated_Source\\PSoC5/core_cm3.h"
 157              		.file 6 "Generated_Source\\PSoC5/UART_1.h"
 158              		.file 7 "Generated_Source\\PSoC5/Timer_1.h"
 159              		.file 8 "Generated_Source\\PSoC5/ADC_DelSig_1.h"
 160              		.file 9 "Generated_Source\\PSoC5/isr_1.h"